target datalayout = "e-m:e-p270:32:32-p271:32:32-p272:64:64-i64:64-i128:128-f80:128-n8:16:32:64-S128"
target triple = "x86_64-pc-linux-gnu"

%"class.net::IPEndPoint" = type <{ %"class.net::IPAddress", i16, [6 x i8] }>
%"class.net::IPAddress" = type { %"class.std::vector" }
%"class.std::vector" = type { %"struct.std::_Vector_base" }
%"struct.std::_Vector_base" = type { %"struct.std::_Vector_base<unsigned char, std::allocator<unsigned char>>::_Vector_impl" }
%"struct.std::_Vector_base<unsigned char, std::allocator<unsigned char>>::_Vector_impl" = type { %"struct.std::_Vector_base<unsigned char, std::allocator<unsigned char>>::_Vector_impl_data" }
%"struct.std::_Vector_base<unsigned char, std::allocator<unsigned char>>::_Vector_impl_data" = type { ptr, ptr, ptr }
%struct.sockaddr_in = type { i16, i16, %struct.in_addr, [8 x i8] }
%struct.in_addr = type { i32 }
%struct.sockaddr_in6 = type { i16, i16, i32, %struct.in6_addr, i32 }
%struct.in6_addr = type { %union.anon }
%union.anon = type { [4 x i32] }

; Function Attrs: mustprogress nounwind uwtable
define linkonce_odr noundef ptr @_ZNKSt6vectorIhSaIhEE11_M_data_ptrIhEEPT_S4_(ptr noundef nonnull align 8 dereferenceable(24) %0, ptr noundef %1) #2 comdat align 2 {
  %3 = alloca ptr, align 8
  %4 = alloca ptr, align 8
  store ptr %0, ptr %3, align 8, !tbaa !38
  store ptr %1, ptr %4, align 8, !tbaa !41
  %5 = load ptr, ptr %4, align 8, !tbaa !41
  ret ptr %5
}

; Function Attrs: inlinehint mustprogress nounwind uwtable
define linkonce_odr noundef zeroext i16 @_ZN4base8ByteSwapEt(i16 noundef zeroext %0) #12 comdat {
  %2 = alloca i16, align 2
  store i16 %0, ptr %2, align 2, !tbaa !19
  %3 = load i16, ptr %2, align 2, !tbaa !19
  %4 = call i16 @llvm.bswap.i16(i16 %3)
  ret i16 %4
}

; Function Attrs: mustprogress nounwind uwtable
define linkonce_odr noundef i64 @_ZNKSt6vectorIhSaIhEE4sizeEv(ptr noundef nonnull align 8 dereferenceable(24) %0) #2 comdat align 2 {
  %2 = alloca ptr, align 8
  store ptr %0, ptr %2, align 8, !tbaa !38
  %3 = load ptr, ptr %2, align 8
  %4 = getelementptr inbounds nuw %"struct.std::_Vector_base", ptr %3, i32 0, i32 0
  %5 = getelementptr inbounds nuw %"struct.std::_Vector_base<unsigned char, std::allocator<unsigned char>>::_Vector_impl_data", ptr %4, i32 0, i32 1
  %6 = load ptr, ptr %5, align 8, !tbaa !54
  %7 = getelementptr inbounds nuw %"struct.std::_Vector_base", ptr %3, i32 0, i32 0
  %8 = getelementptr inbounds nuw %"struct.std::_Vector_base<unsigned char, std::allocator<unsigned char>>::_Vector_impl_data", ptr %7, i32 0, i32 0
  %9 = load ptr, ptr %8, align 8, !tbaa !40
  %10 = ptrtoint ptr %6 to i64
  %11 = ptrtoint ptr %9 to i64
  %12 = sub i64 %10, %11
  ret i64 %12
}

; Function Attrs: mustprogress nounwind uwtable
define linkonce_odr noundef ptr @_ZNKSt6vectorIhSaIhEE4dataEv(ptr noundef nonnull align 8 dereferenceable(24) %0) #2 comdat align 2 {
  %2 = alloca ptr, align 8
  store ptr %0, ptr %2, align 8, !tbaa !38
  %3 = load ptr, ptr %2, align 8
  %4 = getelementptr inbounds nuw %"struct.std::_Vector_base", ptr %3, i32 0, i32 0
  %5 = getelementptr inbounds nuw %"struct.std::_Vector_base<unsigned char, std::allocator<unsigned char>>::_Vector_impl_data", ptr %4, i32 0, i32 0
  %6 = load ptr, ptr %5, align 8, !tbaa !40
  %7 = call noundef ptr @_ZNKSt6vectorIhSaIhEE11_M_data_ptrIhEEPT_S4_(ptr noundef nonnull align 8 dereferenceable(24) %3, ptr noundef %6) #15
  ret ptr %7
}

; Function Attrs: mustprogress nounwind uwtable
define linkonce_odr noundef nonnull align 8 dereferenceable(24) ptr @_ZNK3net9IPAddress5bytesEv(ptr noundef nonnull align 8 dereferenceable(24) %0) #2 comdat align 2 {
  %2 = alloca ptr, align 8
  store ptr %0, ptr %2, align 8, !tbaa !17
  %3 = load ptr, ptr %2, align 8
  %4 = getelementptr inbounds nuw %"class.net::IPAddress", ptr %3, i32 0, i32 0
  ret ptr %4
}

; Function Attrs: inlinehint mustprogress uwtable
define linkonce_odr noundef zeroext i16 @_ZN4base11HostToNet16Et(i16 noundef zeroext %0) #4 comdat {
  %2 = alloca i16, align 2
  store i16 %0, ptr %2, align 2, !tbaa !19
  %3 = load i16, ptr %2, align 2, !tbaa !19
  %4 = call noundef zeroext i16 @_ZN4base8ByteSwapEt(i16 noundef zeroext %3)
  ret i16 %4
}

; Function Attrs: mustprogress nounwind uwtable
define linkonce_odr noundef i64 @_ZNK3net9IPAddress4sizeEv(ptr noundef nonnull align 8 dereferenceable(24) %0) #2 comdat align 2 {
  %2 = alloca ptr, align 8
  store ptr %0, ptr %2, align 8, !tbaa !17
  %3 = load ptr, ptr %2, align 8
  %4 = getelementptr inbounds nuw %"class.net::IPAddress", ptr %3, i32 0, i32 0
  %5 = call noundef i64 @_ZNKSt6vectorIhSaIhEE4sizeEv(ptr noundef nonnull align 8 dereferenceable(24) %4) #15
  ret i64 %5
}

; Function Attrs: mustprogress uwtable
define noundef zeroext i1 @_ZNK3net10IPEndPoint10ToSockAddrEP8sockaddrPj(ptr noundef nonnull align 8 dereferenceable(26) %0, ptr noundef %1, ptr noundef %2) #0 align 2 {
  %4 = alloca i1, align 1
  %5 = alloca ptr, align 8
  %6 = alloca ptr, align 8
  %7 = alloca ptr, align 8
  %8 = alloca ptr, align 8
  %9 = alloca ptr, align 8
  store ptr %0, ptr %5, align 8, !tbaa !3
  store ptr %1, ptr %6, align 8, !tbaa !20
  store ptr %2, ptr %7, align 8, !tbaa !22
  %10 = load ptr, ptr %5, align 8
  %11 = getelementptr inbounds nuw %"class.net::IPEndPoint", ptr %10, i32 0, i32 0
  %12 = call noundef i64 @_ZNK3net9IPAddress4sizeEv(ptr noundef nonnull align 8 dereferenceable(24) %11)
  switch i64 %12, label %55 [
    i64 4, label %13
    i64 16, label %34
  ]

13:                                               ; preds = %3
  %14 = load ptr, ptr %7, align 8, !tbaa !22
  %15 = load i32, ptr %14, align 4, !tbaa !24
  %16 = icmp ult i32 %15, 16
  br i1 %16, label %17, label %18

17:                                               ; preds = %13
  store i1 false, ptr %4, align 1
  br label %57

18:                                               ; preds = %13
  %19 = load ptr, ptr %7, align 8, !tbaa !22
  store i32 16, ptr %19, align 4, !tbaa !24
  call void @llvm.lifetime.start.p0(i64 8, ptr %8) #15
  %20 = load ptr, ptr %6, align 8, !tbaa !20
  store ptr %20, ptr %8, align 8, !tbaa !26
  %21 = load ptr, ptr %8, align 8, !tbaa !26
  call void @llvm.memset.p0.i64(ptr align 4 %21, i8 0, i64 16, i1 false)
  %22 = load ptr, ptr %8, align 8, !tbaa !26
  %23 = getelementptr inbounds nuw %struct.sockaddr_in, ptr %22, i32 0, i32 0
  store i16 2, ptr %23, align 4, !tbaa !28
  %24 = getelementptr inbounds nuw %"class.net::IPEndPoint", ptr %10, i32 0, i32 1
  %25 = load i16, ptr %24, align 8, !tbaa !8
  %26 = call noundef zeroext i16 @_ZN4base11HostToNet16Et(i16 noundef zeroext %25)
  %27 = load ptr, ptr %8, align 8, !tbaa !26
  %28 = getelementptr inbounds nuw %struct.sockaddr_in, ptr %27, i32 0, i32 1
  store i16 %26, ptr %28, align 2, !tbaa !31
  %29 = load ptr, ptr %8, align 8, !tbaa !26
  %30 = getelementptr inbounds nuw %struct.sockaddr_in, ptr %29, i32 0, i32 2
  %31 = getelementptr inbounds nuw %"class.net::IPEndPoint", ptr %10, i32 0, i32 0
  %32 = call noundef nonnull align 8 dereferenceable(24) ptr @_ZNK3net9IPAddress5bytesEv(ptr noundef nonnull align 8 dereferenceable(24) %31)
  %33 = call noundef ptr @_ZNKSt6vectorIhSaIhEE4dataEv(ptr noundef nonnull align 8 dereferenceable(24) %32) #15
  call void @llvm.memcpy.p0.p0.i64(ptr align 4 %30, ptr align 1 %33, i64 4, i1 false)
  call void @llvm.lifetime.end.p0(i64 8, ptr %8) #15
  br label %56

34:                                               ; preds = %3
  %35 = load ptr, ptr %7, align 8, !tbaa !22
  %36 = load i32, ptr %35, align 4, !tbaa !24
  %37 = icmp ult i32 %36, 28
  br i1 %37, label %38, label %39

38:                                               ; preds = %34
  store i1 false, ptr %4, align 1
  br label %57

39:                                               ; preds = %34
  %40 = load ptr, ptr %7, align 8, !tbaa !22
  store i32 28, ptr %40, align 4, !tbaa !24
  call void @llvm.lifetime.start.p0(i64 8, ptr %9) #15
  %41 = load ptr, ptr %6, align 8, !tbaa !20
  store ptr %41, ptr %9, align 8, !tbaa !32
  %42 = load ptr, ptr %9, align 8, !tbaa !32
  call void @llvm.memset.p0.i64(ptr align 4 %42, i8 0, i64 28, i1 false)
  %43 = load ptr, ptr %9, align 8, !tbaa !32
  %44 = getelementptr inbounds nuw %struct.sockaddr_in6, ptr %43, i32 0, i32 0
  store i16 10, ptr %44, align 4, !tbaa !34
  %45 = getelementptr inbounds nuw %"class.net::IPEndPoint", ptr %10, i32 0, i32 1
  %46 = load i16, ptr %45, align 8, !tbaa !8
  %47 = call noundef zeroext i16 @_ZN4base11HostToNet16Et(i16 noundef zeroext %46)
  %48 = load ptr, ptr %9, align 8, !tbaa !32
  %49 = getelementptr inbounds nuw %struct.sockaddr_in6, ptr %48, i32 0, i32 1
  store i16 %47, ptr %49, align 2, !tbaa !37
  %50 = load ptr, ptr %9, align 8, !tbaa !32
  %51 = getelementptr inbounds nuw %struct.sockaddr_in6, ptr %50, i32 0, i32 3
  %52 = getelementptr inbounds nuw %"class.net::IPEndPoint", ptr %10, i32 0, i32 0
  %53 = call noundef nonnull align 8 dereferenceable(24) ptr @_ZNK3net9IPAddress5bytesEv(ptr noundef nonnull align 8 dereferenceable(24) %52)
  %54 = call noundef ptr @_ZNKSt6vectorIhSaIhEE4dataEv(ptr noundef nonnull align 8 dereferenceable(24) %53) #15
  call void @llvm.memcpy.p0.p0.i64(ptr align 4 %51, ptr align 1 %54, i64 16, i1 false)
  call void @llvm.lifetime.end.p0(i64 8, ptr %9) #15
  br label %56

55:                                               ; preds = %3
  store i1 false, ptr %4, align 1
  br label %57

56:                                               ; preds = %39, %18
  store i1 true, ptr %4, align 1
  br label %57

57:                                               ; preds = %56, %55, %38, %17
  %58 = load i1, ptr %4, align 1
  ret i1 %58
}