; Function Attrs: mustprogress nofree norecurse nosync nounwind willreturn memory(readwrite, inaccessiblemem: none) uwtable
define noundef zeroext i1 @_ZNK3net10IPEndPoint10ToSockAddrEP8sockaddrPj(ptr noundef nonnull readonly align 8 captures(none) dereferenceable(26) %0, ptr noundef writeonly captures(none) %1, ptr noundef captures(none) %2) local_unnamed_addr #5 align 2 {
  %4 = getelementptr inbounds nuw i8, ptr %0, i64 8
  %5 = load ptr, ptr %4, align 8, !tbaa !15
  %6 = load ptr, ptr %0, align 8, !tbaa !16
  %7 = ptrtoint ptr %5 to i64
  %8 = ptrtoint ptr %6 to i64
  %9 = sub i64 %7, %8
  switch i64 %9, label %31 [
    i64 4, label %10
    i64 16, label %21
  ]

10:                                               ; preds = %3
  %11 = load i32, ptr %2, align 4, !tbaa !17
  %12 = icmp ult i32 %11, 16
  br i1 %12, label %31, label %13

13:                                               ; preds = %10
  store i32 16, ptr %2, align 4, !tbaa !17
  tail call void @llvm.memset.p0.i64(ptr noundef nonnull align 4 dereferenceable(16) %1, i8 0, i64 16, i1 false)
  store i16 2, ptr %1, align 4, !tbaa !19
  %14 = getelementptr inbounds nuw i8, ptr %0, i64 24
  %15 = load i16, ptr %14, align 8, !tbaa !3
  %16 = tail call noundef i16 @llvm.bswap.i16(i16 %15)
  %17 = getelementptr inbounds nuw i8, ptr %1, i64 2
  store i16 %16, ptr %17, align 2, !tbaa !22
  %18 = getelementptr inbounds nuw i8, ptr %1, i64 4
  %19 = load ptr, ptr %0, align 8, !tbaa !16
  %20 = load i32, ptr %19, align 1
  store i32 %20, ptr %18, align 4
  br label %31

21:                                               ; preds = %3
  %22 = load i32, ptr %2, align 4, !tbaa !17
  %23 = icmp ult i32 %22, 28
  br i1 %23, label %31, label %24

24:                                               ; preds = %21
  store i32 28, ptr %2, align 4, !tbaa !17
  tail call void @llvm.memset.p0.i64(ptr noundef nonnull align 4 dereferenceable(28) %1, i8 0, i64 28, i1 false)
  store i16 10, ptr %1, align 4, !tbaa !23
  %25 = getelementptr inbounds nuw i8, ptr %0, i64 24
  %26 = load i16, ptr %25, align 8, !tbaa !3
  %27 = tail call noundef i16 @llvm.bswap.i16(i16 %26)
  %28 = getelementptr inbounds nuw i8, ptr %1, i64 2
  store i16 %27, ptr %28, align 2, !tbaa !26
  %29 = getelementptr inbounds nuw i8, ptr %1, i64 8
  %30 = load ptr, ptr %0, align 8, !tbaa !16
  tail call void @llvm.memcpy.p0.p0.i64(ptr noundef nonnull align 4 dereferenceable(16) %29, ptr noundef nonnull align 1 dereferenceable(16) %30, i64 16, i1 false)
  br label %31

31:                                               ; preds = %13, %24, %3, %21, %10
  %.0 = phi i1 [ false, %10 ], [ false, %21 ], [ false, %3 ], [ true, %24 ], [ true, %13 ]
  ret i1 %.0
}